target datalayout = "e-m:e-p270:32:32-p271:32:32-p272:64:64-i64:64-i128:128-f80:128-n8:16:32:64-S128"
target triple = "x86_64-pc-linux-gnu"

%struct.Gia_Obj_t_ = type <{ i64, i32 }>
%struct.Gia_Man_t_ = type { ptr, ptr, i32, i32, i32, i32, ptr, ptr, i32, i32, i32, ptr, ptr, %struct.Vec_Int_t_, %struct.Vec_Int_t_, i32, i32, i32, %struct.Vec_Int_t_, ptr, ptr, ptr, i32, i32, i32, i32, ptr, ptr, ptr, ptr, ptr, i32, i32, ptr, i32, ptr, ptr, ptr, ptr, ptr, ptr, ptr, ptr, ptr, ptr, ptr, ptr, ptr, ptr, ptr, ptr, ptr, ptr, %struct.Vec_Int_t_, %struct.Vec_Int_t_, ptr, ptr, ptr, ptr, ptr, ptr, ptr, ptr, ptr, ptr, ptr, ptr, ptr, ptr, ptr, ptr, ptr, ptr, ptr, ptr, ptr, i32, float, float, ptr, ptr, i32, ptr, ptr, ptr, ptr, ptr, ptr, ptr, ptr, ptr, ptr, ptr, ptr, ptr, ptr, ptr, i64, i64, ptr, ptr, i32, i32, i32, i32, i32, i32, i32, i32, i32, i32, i32, i32, ptr, ptr, ptr, ptr, ptr, ptr, ptr, ptr, i32, i32, i32, ptr, i32, i32, ptr, ptr, ptr, ptr, ptr, ptr, i32, i32, ptr, %struct.Vec_Int_t_, %struct.Vec_Int_t_, %struct.Vec_Int_t_, ptr, ptr, ptr, i32, i32, i32, i32, ptr, ptr, ptr, ptr, ptr }
%struct.Vec_Int_t_ = type { i32, i32, ptr }

; Function Attrs: inlinehint nounwind uwtable
define internal i32 @Gia_ObjFaninId0(ptr noundef %0, i32 noundef %1) #2 {
  %3 = alloca ptr, align 8
  %4 = alloca i32, align 4
  store ptr %0, ptr %3, align 8, !tbaa !16
  store i32 %1, ptr %4, align 4, !tbaa !8
  %5 = load i32, ptr %4, align 4, !tbaa !8
  %6 = load ptr, ptr %3, align 8, !tbaa !16
  %7 = load i64, ptr %6, align 4
  %8 = and i64 %7, 536870911
  %9 = trunc i64 %8 to i32
  %10 = sub nsw i32 %5, %9
  ret i32 %10
}

; Function Attrs: inlinehint nounwind uwtable
define internal ptr @Gia_ManConst0(ptr noundef %0) #2 {
  %2 = alloca ptr, align 8
  store ptr %0, ptr %2, align 8, !tbaa !3
  %3 = load ptr, ptr %2, align 8, !tbaa !3
  %4 = getelementptr inbounds nuw %struct.Gia_Man_t_, ptr %3, i32 0, i32 6
  %5 = load ptr, ptr %4, align 8, !tbaa !44
  ret ptr %5
}

; Function Attrs: inlinehint nounwind uwtable
define internal void @Vec_IntWriteEntry(ptr noundef %0, i32 noundef %1, i32 noundef %2) #2 {
  %4 = alloca ptr, align 8
  %5 = alloca i32, align 4
  %6 = alloca i32, align 4
  store ptr %0, ptr %4, align 8, !tbaa !51
  store i32 %1, ptr %5, align 4, !tbaa !8
  store i32 %2, ptr %6, align 4, !tbaa !8
  %7 = load i32, ptr %6, align 4, !tbaa !8
  %8 = load ptr, ptr %4, align 8, !tbaa !51
  %9 = getelementptr inbounds nuw %struct.Vec_Int_t_, ptr %8, i32 0, i32 2
  %10 = load ptr, ptr %9, align 8, !tbaa !56
  %11 = load i32, ptr %5, align 4, !tbaa !8
  %12 = sext i32 %11 to i64
  %13 = getelementptr inbounds i32, ptr %10, i64 %12
  store i32 %7, ptr %13, align 4, !tbaa !8
  ret void
}

; Function Attrs: inlinehint nounwind uwtable
define internal i32 @Gia_ObjId(ptr noundef %0, ptr noundef %1) #2 {
  %3 = alloca ptr, align 8
  %4 = alloca ptr, align 8
  store ptr %0, ptr %3, align 8, !tbaa !3
  store ptr %1, ptr %4, align 8, !tbaa !16
  %5 = load ptr, ptr %4, align 8, !tbaa !16
  %6 = load ptr, ptr %3, align 8, !tbaa !3
  %7 = getelementptr inbounds nuw %struct.Gia_Man_t_, ptr %6, i32 0, i32 6
  %8 = load ptr, ptr %7, align 8, !tbaa !44
  %9 = ptrtoint ptr %5 to i64
  %10 = ptrtoint ptr %8 to i64
  %11 = sub i64 %9, %10
  %12 = sdiv exact i64 %11, 12
  %13 = trunc i64 %12 to i32
  ret i32 %13
}

; Function Attrs: inlinehint nounwind uwtable
define internal i32 @Abc_LitNotCond(i32 noundef %0, i32 noundef %1) #2 {
  %3 = alloca i32, align 4
  %4 = alloca i32, align 4
  store i32 %0, ptr %3, align 4, !tbaa !8
  store i32 %1, ptr %4, align 4, !tbaa !8
  %5 = load i32, ptr %3, align 4, !tbaa !8
  %6 = load i32, ptr %4, align 4, !tbaa !8
  %7 = icmp sgt i32 %6, 0
  %8 = zext i1 %7 to i32
  %9 = xor i32 %5, %8
  ret i32 %9
}

; Function Attrs: inlinehint nounwind uwtable
define internal i32 @Gia_ObjFaninC0(ptr noundef %0) #2 {
  %2 = alloca ptr, align 8
  store ptr %0, ptr %2, align 8, !tbaa !16
  %3 = load ptr, ptr %2, align 8, !tbaa !16
  %4 = load i64, ptr %3, align 4
  %5 = lshr i64 %4, 29
  %6 = and i64 %5, 1
  %7 = trunc i64 %6 to i32
  ret i32 %7
}

; Function Attrs: inlinehint nounwind uwtable
define internal i32 @Gia_ObjFaninId0p(ptr noundef %0, ptr noundef %1) #2 {
  %3 = alloca ptr, align 8
  %4 = alloca ptr, align 8
  store ptr %0, ptr %3, align 8, !tbaa !3
  store ptr %1, ptr %4, align 8, !tbaa !16
  %5 = load ptr, ptr %4, align 8, !tbaa !16
  %6 = load ptr, ptr %3, align 8, !tbaa !3
  %7 = load ptr, ptr %4, align 8, !tbaa !16
  %8 = call i32 @Gia_ObjId(ptr noundef %6, ptr noundef %7)
  %9 = call i32 @Gia_ObjFaninId0(ptr noundef %5, i32 noundef %8)
  ret i32 %9
}

; Function Attrs: inlinehint nounwind uwtable
define internal ptr @Gia_ObjFanin0(ptr noundef %0) #2 {
  %2 = alloca ptr, align 8
  store ptr %0, ptr %2, align 8, !tbaa !16
  %3 = load ptr, ptr %2, align 8, !tbaa !16
  %4 = load ptr, ptr %2, align 8, !tbaa !16
  %5 = load i64, ptr %4, align 4
  %6 = and i64 %5, 536870911
  %7 = trunc i64 %6 to i32
  %8 = sext i32 %7 to i64
  %9 = sub i64 0, %8
  %10 = getelementptr inbounds %struct.Gia_Obj_t_, ptr %3, i64 %9
  ret ptr %10
}

; Function Attrs: inlinehint nounwind uwtable
define internal ptr @Gia_ManObj(ptr noundef %0, i32 noundef %1) #2 {
  %3 = alloca ptr, align 8
  %4 = alloca i32, align 4
  store ptr %0, ptr %3, align 8, !tbaa !3
  store i32 %1, ptr %4, align 4, !tbaa !8
  %5 = load ptr, ptr %3, align 8, !tbaa !3
  %6 = getelementptr inbounds nuw %struct.Gia_Man_t_, ptr %5, i32 0, i32 6
  %7 = load ptr, ptr %6, align 8, !tbaa !44
  %8 = load i32, ptr %4, align 4, !tbaa !8
  %9 = sext i32 %8 to i64
  %10 = getelementptr inbounds %struct.Gia_Obj_t_, ptr %7, i64 %9
  ret ptr %10
}

; Function Attrs: inlinehint nounwind uwtable
define internal i32 @Vec_IntEntry(ptr noundef %0, i32 noundef %1) #2 {
  %3 = alloca ptr, align 8
  %4 = alloca i32, align 4
  store ptr %0, ptr %3, align 8, !tbaa !51
  store i32 %1, ptr %4, align 4, !tbaa !8
  %5 = load ptr, ptr %3, align 8, !tbaa !51
  %6 = getelementptr inbounds nuw %struct.Vec_Int_t_, ptr %5, i32 0, i32 2
  %7 = load ptr, ptr %6, align 8, !tbaa !56
  %8 = load i32, ptr %4, align 4, !tbaa !8
  %9 = sext i32 %8 to i64
  %10 = getelementptr inbounds i32, ptr %7, i64 %9
  %11 = load i32, ptr %10, align 4, !tbaa !8
  ret i32 %11
}

; Function Attrs: inlinehint nounwind uwtable
define internal i32 @Vec_IntSize(ptr noundef %0) #2 {
  %2 = alloca ptr, align 8
  store ptr %0, ptr %2, align 8, !tbaa !51
  %3 = load ptr, ptr %2, align 8, !tbaa !51
  %4 = getelementptr inbounds nuw %struct.Vec_Int_t_, ptr %3, i32 0, i32 1
  %5 = load i32, ptr %4, align 4, !tbaa !52
  ret i32 %5
}

; Function Attrs: nounwind uwtable
define void @Bmc_MnaBuild(ptr noundef %0, ptr noundef %1, ptr noundef %2, ptr noundef %3, ptr noundef %4, ptr noundef %5) #0 {
  %7 = alloca ptr, align 8
  %8 = alloca ptr, align 8
  %9 = alloca ptr, align 8
  %10 = alloca ptr, align 8
  %11 = alloca ptr, align 8
  %12 = alloca ptr, align 8
  %13 = alloca ptr, align 8
  %14 = alloca i32, align 4
  %15 = alloca i32, align 4
  store ptr %0, ptr %7, align 8, !tbaa !3
  store ptr %1, ptr %8, align 8, !tbaa !51
  store ptr %2, ptr %9, align 8, !tbaa !51
  store ptr %3, ptr %10, align 8, !tbaa !3
  store ptr %4, ptr %11, align 8, !tbaa !51
  store ptr %5, ptr %12, align 8, !tbaa !51
  call void @llvm.lifetime.start.p0(i64 8, ptr %13) #12
  call void @llvm.lifetime.start.p0(i64 4, ptr %14) #12
  call void @llvm.lifetime.start.p0(i64 4, ptr %15) #12
  store i32 0, ptr %14, align 4, !tbaa !8
  br label %16

16:                                               ; preds = %50, %6
  %17 = load i32, ptr %14, align 4, !tbaa !8
  %18 = load ptr, ptr %8, align 8, !tbaa !51
  %19 = call i32 @Vec_IntSize(ptr noundef %18)
  %20 = icmp slt i32 %17, %19
  br i1 %20, label %21, label %28

21:                                               ; preds = %16
  %22 = load ptr, ptr %7, align 8, !tbaa !3
  %23 = load ptr, ptr %8, align 8, !tbaa !51
  %24 = load i32, ptr %14, align 4, !tbaa !8
  %25 = call i32 @Vec_IntEntry(ptr noundef %23, i32 noundef %24)
  %26 = call ptr @Gia_ManObj(ptr noundef %22, i32 noundef %25)
  store ptr %26, ptr %13, align 8, !tbaa !16
  %27 = icmp ne ptr %26, null
  br label %28

28:                                               ; preds = %21, %16
  %29 = phi i1 [ false, %16 ], [ %27, %21 ]
  br i1 %29, label %30, label %53

30:                                               ; preds = %28
  %31 = load ptr, ptr %7, align 8, !tbaa !3
  %32 = load ptr, ptr %13, align 8, !tbaa !16
  %33 = call ptr @Gia_ObjFanin0(ptr noundef %32)
  %34 = load ptr, ptr %10, align 8, !tbaa !3
  %35 = load ptr, ptr %11, align 8, !tbaa !51
  %36 = load ptr, ptr %12, align 8, !tbaa !51
  call void @Bmc_MnaBuild_rec(ptr noundef %31, ptr noundef %33, ptr noundef %34, ptr noundef %35, ptr noundef %36)
  %37 = load ptr, ptr %11, align 8, !tbaa !51
  %38 = load ptr, ptr %7, align 8, !tbaa !3
  %39 = load ptr, ptr %13, align 8, !tbaa !16
  %40 = call i32 @Gia_ObjFaninId0p(ptr noundef %38, ptr noundef %39)
  %41 = call i32 @Vec_IntEntry(ptr noundef %37, i32 noundef %40)
  %42 = load ptr, ptr %13, align 8, !tbaa !16
  %43 = call i32 @Gia_ObjFaninC0(ptr noundef %42)
  %44 = call i32 @Abc_LitNotCond(i32 noundef %41, i32 noundef %43)
  store i32 %44, ptr %15, align 4, !tbaa !8
  %45 = load ptr, ptr %11, align 8, !tbaa !51
  %46 = load ptr, ptr %7, align 8, !tbaa !3
  %47 = load ptr, ptr %13, align 8, !tbaa !16
  %48 = call i32 @Gia_ObjId(ptr noundef %46, ptr noundef %47)
  %49 = load i32, ptr %15, align 4, !tbaa !8
  call void @Vec_IntWriteEntry(ptr noundef %45, i32 noundef %48, i32 noundef %49)
  br label %50

50:                                               ; preds = %30
  %51 = load i32, ptr %14, align 4, !tbaa !8
  %52 = add nsw i32 %51, 1
  store i32 %52, ptr %14, align 4, !tbaa !8
  br label %16, !llvm.loop !60

53:                                               ; preds = %28
  %54 = load ptr, ptr %7, align 8, !tbaa !3
  %55 = call ptr @Gia_ManConst0(ptr noundef %54)
  %56 = load i64, ptr %55, align 4
  %57 = and i64 %56, 9223372036854775807
  %58 = or i64 %57, 0
  store i64 %58, ptr %55, align 4
  store i32 0, ptr %14, align 4, !tbaa !8
  br label %59

59:                                               ; preds = %78, %53
  %60 = load i32, ptr %14, align 4, !tbaa !8
  %61 = load ptr, ptr %9, align 8, !tbaa !51
  %62 = call i32 @Vec_IntSize(ptr noundef %61)
  %63 = icmp slt i32 %60, %62
  br i1 %63, label %64, label %71

64:                                               ; preds = %59
  %65 = load ptr, ptr %7, align 8, !tbaa !3
  %66 = load ptr, ptr %9, align 8, !tbaa !51
  %67 = load i32, ptr %14, align 4, !tbaa !8
  %68 = call i32 @Vec_IntEntry(ptr noundef %66, i32 noundef %67)
  %69 = call ptr @Gia_ManObj(ptr noundef %65, i32 noundef %68)
  store ptr %69, ptr %13, align 8, !tbaa !16
  %70 = icmp ne ptr %69, null
  br label %71

71:                                               ; preds = %64, %59
  %72 = phi i1 [ false, %59 ], [ %70, %64 ]
  br i1 %72, label %73, label %81

73:                                               ; preds = %71
  %74 = load ptr, ptr %13, align 8, !tbaa !16
  %75 = load i64, ptr %74, align 4
  %76 = and i64 %75, 9223372036854775807
  %77 = or i64 %76, 0
  store i64 %77, ptr %74, align 4
  br label %78

78:                                               ; preds = %73
  %79 = load i32, ptr %14, align 4, !tbaa !8
  %80 = add nsw i32 %79, 1
  store i32 %80, ptr %14, align 4, !tbaa !8
  br label %59, !llvm.loop !61

81:                                               ; preds = %71
  call void @llvm.lifetime.end.p0(i64 4, ptr %15) #12
  call void @llvm.lifetime.end.p0(i64 4, ptr %14) #12
  call void @llvm.lifetime.end.p0(i64 8, ptr %13) #12
  ret void
}