; Function Attrs: nounwind uwtable
define void @Bmc_MnaBuild(ptr noundef %0, ptr noundef readonly captures(none) %1, ptr noundef readonly captures(none) %2, ptr noundef %3, ptr noundef %4, ptr noundef %5) local_unnamed_addr #0 {
  %7 = getelementptr i8, ptr %0, i64 32
  %8 = getelementptr i8, ptr %1, i64 4
  %.val3143 = load i32, ptr %8, align 4, !tbaa !28
  %9 = icmp sgt i32 %.val3143, 0
  %.val32.pre = load ptr, ptr %7, align 8, !tbaa !32
  br i1 %9, label %.lr.ph, label %.critedge

.lr.ph:                                           ; preds = %6
  %10 = getelementptr i8, ptr %1, i64 8
  %11 = getelementptr i8, ptr %4, i64 8
  br label %12

12:                                               ; preds = %.lr.ph, %12
  %.val37 = phi ptr [ %.val32.pre, %.lr.ph ], [ %.val40, %12 ]
  %indvars.iv = phi i64 [ 0, %.lr.ph ], [ %indvars.iv.next, %12 ]
  %.not = icmp ne ptr %.val37, null
  tail call void @llvm.assume(i1 %.not)
  %.val35 = load ptr, ptr %10, align 8, !tbaa !37
  %13 = getelementptr inbounds nuw i32, ptr %.val35, i64 %indvars.iv
  %14 = load i32, ptr %13, align 4, !tbaa !38
  %15 = sext i32 %14 to i64
  %16 = getelementptr inbounds %struct.Gia_Obj_t_, ptr %.val37, i64 %15
  %17 = load i64, ptr %16, align 4
  %18 = and i64 %17, 536870911
  %19 = sub nsw i64 0, %18
  %20 = getelementptr inbounds %struct.Gia_Obj_t_, ptr %16, i64 %19
  tail call void @Bmc_MnaBuild_rec(ptr noundef nonnull %0, ptr noundef nonnull %20, ptr noundef %3, ptr noundef %4, ptr noundef %5)
  %.val40 = load ptr, ptr %7, align 8, !tbaa !32
  %21 = ptrtoint ptr %16 to i64
  %22 = ptrtoint ptr %.val40 to i64
  %23 = sub i64 %21, %22
  %24 = sdiv exact i64 %23, 12
  %.val3.i = load i64, ptr %16, align 4
  %25 = trunc i64 %.val3.i to i32
  %26 = and i64 %.val3.i, 536870911
  %27 = sub nsw i64 %24, %26
  %.val34 = load ptr, ptr %11, align 8, !tbaa !37
  %sext = shl i64 %27, 32
  %28 = ashr exact i64 %sext, 30
  %29 = getelementptr inbounds i8, ptr %.val34, i64 %28
  %30 = load i32, ptr %29, align 4, !tbaa !38
  %31 = lshr i32 %25, 29
  %32 = and i32 %31, 1
  %33 = xor i32 %32, %30
  %sext42 = shl i64 %24, 32
  %34 = ashr exact i64 %sext42, 30
  %35 = getelementptr inbounds i8, ptr %.val34, i64 %34
  store i32 %33, ptr %35, align 4, !tbaa !38
  %indvars.iv.next = add nuw nsw i64 %indvars.iv, 1
  %.val31 = load i32, ptr %8, align 4, !tbaa !28
  %36 = sext i32 %.val31 to i64
  %37 = icmp slt i64 %indvars.iv.next, %36
  br i1 %37, label %12, label %.critedge, !llvm.loop !56

.critedge:                                        ; preds = %12, %6
  %.val32 = phi ptr [ %.val32.pre, %6 ], [ %.val40, %12 ]
  %38 = load i64, ptr %.val32, align 4
  %39 = and i64 %38, 9223372036854775807
  store i64 %39, ptr %.val32, align 4
  %40 = getelementptr i8, ptr %2, i64 4
  %.val46 = load i32, ptr %40, align 4, !tbaa !28
  %41 = icmp sgt i32 %.val46, 0
  br i1 %41, label %.lr.ph48, label %.critedge2

.lr.ph48:                                         ; preds = %.critedge
  %42 = getelementptr i8, ptr %2, i64 8
  br label %43

43:                                               ; preds = %.lr.ph48, %44
  %indvars.iv51 = phi i64 [ 0, %.lr.ph48 ], [ %indvars.iv.next52, %44 ]
  %.val36 = load ptr, ptr %7, align 8, !tbaa !32
  %.not30 = icmp eq ptr %.val36, null
  br i1 %.not30, label %.critedge2, label %44

44:                                               ; preds = %43
  %.val33 = load ptr, ptr %42, align 8, !tbaa !37
  %45 = getelementptr inbounds nuw i32, ptr %.val33, i64 %indvars.iv51
  %46 = load i32, ptr %45, align 4, !tbaa !38
  %47 = sext i32 %46 to i64
  %48 = getelementptr inbounds %struct.Gia_Obj_t_, ptr %.val36, i64 %47
  %49 = load i64, ptr %48, align 4
  %50 = and i64 %49, 9223372036854775807
  store i64 %50, ptr %48, align 4
  %indvars.iv.next52 = add nuw nsw i64 %indvars.iv51, 1
  %.val = load i32, ptr %40, align 4, !tbaa !28
  %51 = sext i32 %.val to i64
  %52 = icmp slt i64 %indvars.iv.next52, %51
  br i1 %52, label %43, label %.critedge2, !llvm.loop !57

.critedge2:                                       ; preds = %43, %44, %.critedge
  ret void
}